target datalayout = "e-m:e-p270:32:32-p271:32:32-p272:64:64-i64:64-i128:128-f80:128-n8:16:32:64-S128"
target triple = "x86_64-pc-linux-gnu"

@.str.3 = private unnamed_addr constant [30 x i8] c"Assertion %s failed at %s:%d\0A\00", align 1
@.str.4 = private unnamed_addr constant [2 x i8] c"0\00", align 1
@.str.5 = private unnamed_addr constant [22 x i8] c"libavfilter/vf_v360.c\00", align 1

; Function Attrs: nounwind uwtable
define internal i32 @eac_to_xyz(ptr noundef %0, i32 noundef %1, i32 noundef %2, i32 noundef %3, i32 noundef %4, ptr noundef %5) #0 {
  %7 = alloca ptr, align 8
  %8 = alloca i32, align 4
  %9 = alloca i32, align 4
  %10 = alloca i32, align 4
  %11 = alloca i32, align 4
  %12 = alloca ptr, align 8
  %13 = alloca float, align 4
  %14 = alloca float, align 4
  %15 = alloca float, align 4
  %16 = alloca i32, align 4
  %17 = alloca i32, align 4
  %18 = alloca i32, align 4
  %19 = alloca float, align 4
  %20 = alloca float, align 4
  %21 = alloca float, align 4
  %22 = alloca float, align 4
  %23 = alloca float, align 4
  store ptr %0, ptr %7, align 8, !tbaa !4
  store i32 %1, ptr %8, align 4, !tbaa !9
  store i32 %2, ptr %9, align 4, !tbaa !9
  store i32 %3, ptr %10, align 4, !tbaa !9
  store i32 %4, ptr %11, align 4, !tbaa !9
  store ptr %5, ptr %12, align 8, !tbaa !188
  call void @llvm.lifetime.start.p0(i64 4, ptr %13) #13
  store float 2.000000e+00, ptr %13, align 4, !tbaa !99
  call void @llvm.lifetime.start.p0(i64 4, ptr %14) #13
  %24 = load i32, ptr %10, align 4, !tbaa !9
  %25 = sitofp i32 %24 to float
  %26 = fdiv nsz float 2.000000e+00, %25
  store float %26, ptr %14, align 4, !tbaa !99
  call void @llvm.lifetime.start.p0(i64 4, ptr %15) #13
  %27 = load i32, ptr %11, align 4, !tbaa !9
  %28 = sitofp i32 %27 to float
  %29 = fdiv nsz float 2.000000e+00, %28
  store float %29, ptr %15, align 4, !tbaa !99
  call void @llvm.lifetime.start.p0(i64 4, ptr %16) #13
  call void @llvm.lifetime.start.p0(i64 4, ptr %17) #13
  call void @llvm.lifetime.start.p0(i64 4, ptr %18) #13
  call void @llvm.lifetime.start.p0(i64 4, ptr %19) #13
  call void @llvm.lifetime.start.p0(i64 4, ptr %20) #13
  call void @llvm.lifetime.start.p0(i64 4, ptr %21) #13
  call void @llvm.lifetime.start.p0(i64 4, ptr %22) #13
  %30 = load i32, ptr %8, align 4, !tbaa !9
  %31 = sitofp i32 %30 to float
  %32 = fadd nsz float %31, 5.000000e-01
  %33 = load i32, ptr %10, align 4, !tbaa !9
  %34 = sitofp i32 %33 to float
  %35 = fdiv nsz float %32, %34
  store float %35, ptr %22, align 4, !tbaa !99
  call void @llvm.lifetime.start.p0(i64 4, ptr %23) #13
  %36 = load i32, ptr %9, align 4, !tbaa !9
  %37 = sitofp i32 %36 to float
  %38 = fadd nsz float %37, 5.000000e-01
  %39 = load i32, ptr %11, align 4, !tbaa !9
  %40 = sitofp i32 %39 to float
  %41 = fdiv nsz float %38, %40
  store float %41, ptr %23, align 4, !tbaa !99
  %42 = load float, ptr %22, align 4, !tbaa !99
  %43 = load float, ptr %14, align 4, !tbaa !99
  %44 = fsub nsz float %42, %43
  %45 = fmul nsz float 3.000000e+00, %44
  %46 = load float, ptr %14, align 4, !tbaa !99
  %47 = call nsz float @llvm.fmuladd.f32(float -2.000000e+00, float %46, float 1.000000e+00)
  %48 = fdiv nsz float %45, %47
  store float %48, ptr %22, align 4, !tbaa !99
  %49 = load float, ptr %22, align 4, !tbaa !99
  %50 = fcmp nsz olt float %49, 0.000000e+00
  br i1 %50, label %51, label %54

51:                                               ; preds = %6
  store i32 0, ptr %16, align 4, !tbaa !9
  %52 = load float, ptr %22, align 4, !tbaa !99
  %53 = fsub nsz float %52, 5.000000e-01
  store float %53, ptr %22, align 4, !tbaa !99
  br label %68

54:                                               ; preds = %6
  %55 = load float, ptr %22, align 4, !tbaa !99
  %56 = fcmp nsz oge float %55, 3.000000e+00
  br i1 %56, label %57, label %60

57:                                               ; preds = %54
  store i32 2, ptr %16, align 4, !tbaa !9
  %58 = load float, ptr %22, align 4, !tbaa !99
  %59 = fsub nsz float %58, 2.500000e+00
  store float %59, ptr %22, align 4, !tbaa !99
  br label %67

60:                                               ; preds = %54
  %61 = load float, ptr %22, align 4, !tbaa !99
  %62 = call nsz float @llvm.floor.f32(float %61)
  %63 = fptosi float %62 to i32
  store i32 %63, ptr %16, align 4, !tbaa !9
  %64 = load float, ptr %22, align 4, !tbaa !99
  %65 = frem nsz float %64, 1.000000e+00
  %66 = fsub nsz float %65, 5.000000e-01
  store float %66, ptr %22, align 4, !tbaa !99
  br label %67

67:                                               ; preds = %60, %57
  br label %68

68:                                               ; preds = %67, %51
  %69 = load float, ptr %23, align 4, !tbaa !99
  %70 = fmul nsz float %69, 2.000000e+00
  %71 = call nsz float @llvm.floor.f32(float %70)
  %72 = fptosi float %71 to i32
  store i32 %72, ptr %17, align 4, !tbaa !9
  %73 = load float, ptr %23, align 4, !tbaa !99
  %74 = load float, ptr %15, align 4, !tbaa !99
  %75 = fsub nsz float %73, %74
  %76 = load i32, ptr %17, align 4, !tbaa !9
  %77 = sitofp i32 %76 to float
  %78 = call nsz float @llvm.fmuladd.f32(float -5.000000e-01, float %77, float %75)
  %79 = load float, ptr %15, align 4, !tbaa !99
  %80 = call nsz float @llvm.fmuladd.f32(float -2.000000e+00, float %79, float 5.000000e-01)
  %81 = fdiv nsz float %78, %80
  %82 = fsub nsz float %81, 5.000000e-01
  store float %82, ptr %23, align 4, !tbaa !99
  %83 = load float, ptr %22, align 4, !tbaa !99
  %84 = fcmp nsz oge float %83, -5.000000e-01
  br i1 %84, label %85, label %94

85:                                               ; preds = %68
  %86 = load float, ptr %22, align 4, !tbaa !99
  %87 = fcmp nsz olt float %86, 5.000000e-01
  br i1 %87, label %88, label %94

88:                                               ; preds = %85
  %89 = load float, ptr %22, align 4, !tbaa !99
  %90 = fpext nsz float %89 to double
  %91 = fmul nsz double 0x3FF921FB54442D18, %90
  %92 = fptrunc nsz double %91 to float
  %93 = call nsz float @llvm.tan.f32(float %92)
  store float %93, ptr %22, align 4, !tbaa !99
  br label %97

94:                                               ; preds = %85, %68
  %95 = load float, ptr %22, align 4, !tbaa !99
  %96 = fmul nsz float 2.000000e+00, %95
  store float %96, ptr %22, align 4, !tbaa !99
  br label %97

97:                                               ; preds = %94, %88
  %98 = load float, ptr %23, align 4, !tbaa !99
  %99 = fcmp nsz oge float %98, -5.000000e-01
  br i1 %99, label %100, label %109

100:                                              ; preds = %97
  %101 = load float, ptr %23, align 4, !tbaa !99
  %102 = fcmp nsz olt float %101, 5.000000e-01
  br i1 %102, label %103, label %109

103:                                              ; preds = %100
  %104 = load float, ptr %23, align 4, !tbaa !99
  %105 = fpext nsz float %104 to double
  %106 = fmul nsz double 0x3FF921FB54442D18, %105
  %107 = fptrunc nsz double %106 to float
  %108 = call nsz float @llvm.tan.f32(float %107)
  store float %108, ptr %23, align 4, !tbaa !99
  br label %112

109:                                              ; preds = %100, %97
  %110 = load float, ptr %23, align 4, !tbaa !99
  %111 = fmul nsz float 2.000000e+00, %110
  store float %111, ptr %23, align 4, !tbaa !99
  br label %112

112:                                              ; preds = %109, %103
  %113 = load i32, ptr %16, align 4, !tbaa !9
  %114 = load i32, ptr %17, align 4, !tbaa !9
  %115 = mul nsw i32 3, %114
  %116 = add nsw i32 %113, %115
  store i32 %116, ptr %18, align 4, !tbaa !9
  %117 = load i32, ptr %18, align 4, !tbaa !9
  switch i32 %117, label %142 [
    i32 0, label %118
    i32 1, label %121
    i32 2, label %124
    i32 3, label %128
    i32 4, label %133
    i32 5, label %138
  ]

118:                                              ; preds = %112
  store float -1.000000e+00, ptr %19, align 4, !tbaa !99
  %119 = load float, ptr %23, align 4, !tbaa !99
  store float %119, ptr %20, align 4, !tbaa !99
  %120 = load float, ptr %22, align 4, !tbaa !99
  store float %120, ptr %21, align 4, !tbaa !99
  br label %146

121:                                              ; preds = %112
  %122 = load float, ptr %22, align 4, !tbaa !99
  store float %122, ptr %19, align 4, !tbaa !99
  %123 = load float, ptr %23, align 4, !tbaa !99
  store float %123, ptr %20, align 4, !tbaa !99
  store float 1.000000e+00, ptr %21, align 4, !tbaa !99
  br label %146

124:                                              ; preds = %112
  store float 1.000000e+00, ptr %19, align 4, !tbaa !99
  %125 = load float, ptr %23, align 4, !tbaa !99
  store float %125, ptr %20, align 4, !tbaa !99
  %126 = load float, ptr %22, align 4, !tbaa !99
  %127 = fneg nsz float %126
  store float %127, ptr %21, align 4, !tbaa !99
  br label %146

128:                                              ; preds = %112
  %129 = load float, ptr %23, align 4, !tbaa !99
  %130 = fneg nsz float %129
  store float %130, ptr %19, align 4, !tbaa !99
  store float 1.000000e+00, ptr %20, align 4, !tbaa !99
  %131 = load float, ptr %22, align 4, !tbaa !99
  %132 = fneg nsz float %131
  store float %132, ptr %21, align 4, !tbaa !99
  br label %146

133:                                              ; preds = %112
  %134 = load float, ptr %23, align 4, !tbaa !99
  %135 = fneg nsz float %134
  store float %135, ptr %19, align 4, !tbaa !99
  %136 = load float, ptr %22, align 4, !tbaa !99
  %137 = fneg nsz float %136
  store float %137, ptr %20, align 4, !tbaa !99
  store float -1.000000e+00, ptr %21, align 4, !tbaa !99
  br label %146

138:                                              ; preds = %112
  %139 = load float, ptr %23, align 4, !tbaa !99
  %140 = fneg nsz float %139
  store float %140, ptr %19, align 4, !tbaa !99
  store float -1.000000e+00, ptr %20, align 4, !tbaa !99
  %141 = load float, ptr %22, align 4, !tbaa !99
  store float %141, ptr %21, align 4, !tbaa !99
  br label %146

142:                                              ; preds = %112
  br label %143

143:                                              ; preds = %142
  call void (ptr, i32, ptr, ...) @av_log(ptr noundef null, i32 noundef 0, ptr noundef @.str.3, ptr noundef @.str.4, ptr noundef @.str.5, i32 noundef 2747)
  call void @abort() #15
  unreachable

144:                                              ; No predecessors!
  br label %145

145:                                              ; preds = %144
  br label %146

146:                                              ; preds = %145, %138, %133, %128, %124, %121, %118
  %147 = load float, ptr %19, align 4, !tbaa !99
  %148 = load ptr, ptr %12, align 8, !tbaa !188
  %149 = getelementptr inbounds float, ptr %148, i64 0
  store float %147, ptr %149, align 4, !tbaa !99
  %150 = load float, ptr %20, align 4, !tbaa !99
  %151 = load ptr, ptr %12, align 8, !tbaa !188
  %152 = getelementptr inbounds float, ptr %151, i64 1
  store float %150, ptr %152, align 4, !tbaa !99
  %153 = load float, ptr %21, align 4, !tbaa !99
  %154 = load ptr, ptr %12, align 8, !tbaa !188
  %155 = getelementptr inbounds float, ptr %154, i64 2
  store float %153, ptr %155, align 4, !tbaa !99
  call void @llvm.lifetime.end.p0(i64 4, ptr %23) #13
  call void @llvm.lifetime.end.p0(i64 4, ptr %22) #13
  call void @llvm.lifetime.end.p0(i64 4, ptr %21) #13
  call void @llvm.lifetime.end.p0(i64 4, ptr %20) #13
  call void @llvm.lifetime.end.p0(i64 4, ptr %19) #13
  call void @llvm.lifetime.end.p0(i64 4, ptr %18) #13
  call void @llvm.lifetime.end.p0(i64 4, ptr %17) #13
  call void @llvm.lifetime.end.p0(i64 4, ptr %16) #13
  call void @llvm.lifetime.end.p0(i64 4, ptr %15) #13
  call void @llvm.lifetime.end.p0(i64 4, ptr %14) #13
  call void @llvm.lifetime.end.p0(i64 4, ptr %13) #13
  ret i32 1
}