; Function Attrs: nounwind uwtable
define internal noundef i32 @eac_to_xyz(ptr readnone captures(none) %0, i32 noundef %1, i32 noundef %2, i32 noundef %3, i32 noundef %4, ptr noundef writeonly captures(none) %5) #4 {
  %7 = sitofp i32 %3 to float
  %8 = fdiv nsz float 2.000000e+00, %7
  %9 = sitofp i32 %4 to float
  %10 = fdiv nsz float 2.000000e+00, %9
  %11 = sitofp i32 %1 to float
  %12 = fadd nsz float %11, 5.000000e-01
  %13 = fdiv nsz float %12, %7
  %14 = sitofp i32 %2 to float
  %15 = fadd nsz float %14, 5.000000e-01
  %16 = fdiv nsz float %15, %9
  %17 = fsub nsz float %13, %8
  %18 = fmul nsz float %17, 3.000000e+00
  %19 = tail call nsz float @llvm.fmuladd.f32(float %8, float -2.000000e+00, float 1.000000e+00)
  %20 = fdiv nsz float %18, %19
  %21 = fcmp nsz olt float %20, 0.000000e+00
  br i1 %21, label %22, label %24

22:                                               ; preds = %6
  %23 = fadd nsz float %20, -5.000000e-01
  br label %33

24:                                               ; preds = %6
  %25 = fcmp nsz ult float %20, 3.000000e+00
  br i1 %25, label %28, label %26

26:                                               ; preds = %24
  %27 = fadd nsz float %20, -2.500000e+00
  br label %33

28:                                               ; preds = %24
  %29 = tail call nsz float @llvm.floor.f32(float %20)
  %30 = fptosi float %29 to i32
  %31 = frem nsz float %20, 1.000000e+00
  %32 = fadd nsz float %31, -5.000000e-01
  br label %33

33:                                               ; preds = %26, %28, %22
  %.055 = phi i32 [ 0, %22 ], [ 2, %26 ], [ %30, %28 ]
  %.051 = phi nsz float [ %23, %22 ], [ %27, %26 ], [ %32, %28 ]
  %34 = fmul nsz float %16, 2.000000e+00
  %35 = tail call nsz float @llvm.floor.f32(float %34)
  %36 = fptosi float %35 to i32
  %37 = fsub nsz float %16, %10
  %38 = sitofp i32 %36 to float
  %39 = tail call nsz float @llvm.fmuladd.f32(float %38, float -5.000000e-01, float %37)
  %40 = tail call nsz float @llvm.fmuladd.f32(float %10, float -2.000000e+00, float 5.000000e-01)
  %41 = fdiv nsz float %39, %40
  %42 = fadd nsz float %41, -5.000000e-01
  %43 = fcmp nsz oge float %.051, -5.000000e-01
  %44 = fcmp nsz olt float %.051, 5.000000e-01
  %or.cond = and i1 %43, %44
  br i1 %or.cond, label %45, label %50

45:                                               ; preds = %33
  %46 = fpext nsz float %.051 to double
  %47 = fmul nsz double %46, 0x3FF921FB54442D18
  %48 = fptrunc nsz double %47 to float
  %49 = tail call nsz float @llvm.tan.f32(float %48)
  br label %52

50:                                               ; preds = %33
  %51 = fmul nsz float %.051, 2.000000e+00
  br label %52

52:                                               ; preds = %50, %45
  %.1 = phi nsz float [ %49, %45 ], [ %51, %50 ]
  %53 = fcmp nsz oge float %42, -5.000000e-01
  %54 = fcmp nsz olt float %42, 5.000000e-01
  %or.cond3 = and i1 %53, %54
  br i1 %or.cond3, label %55, label %60

55:                                               ; preds = %52
  %56 = fpext nsz float %42 to double
  %57 = fmul nsz double %56, 0x3FF921FB54442D18
  %58 = fptrunc nsz double %57 to float
  %59 = tail call nsz float @llvm.tan.f32(float %58)
  br label %62

60:                                               ; preds = %52
  %61 = fmul nsz float %42, 2.000000e+00
  br label %62

62:                                               ; preds = %60, %55
  %.0 = phi nsz float [ %59, %55 ], [ %61, %60 ]
  %63 = mul nsw i32 %36, 3
  %64 = add nsw i32 %.055, %63
  switch i32 %64, label %76 [
    i32 0, label %77
    i32 1, label %65
    i32 2, label %66
    i32 3, label %68
    i32 4, label %71
    i32 5, label %74
  ]

65:                                               ; preds = %62
  br label %77

66:                                               ; preds = %62
  %67 = fneg nsz float %.1
  br label %77

68:                                               ; preds = %62
  %69 = fneg nsz float %.0
  %70 = fneg nsz float %.1
  br label %77

71:                                               ; preds = %62
  %72 = fneg nsz float %.0
  %73 = fneg nsz float %.1
  br label %77

74:                                               ; preds = %62
  %75 = fneg nsz float %.0
  br label %77

76:                                               ; preds = %62
  tail call void (ptr, i32, ptr, ...) @av_log(ptr noundef null, i32 noundef 0, ptr noundef nonnull @.str.3, ptr noundef nonnull @.str.4, ptr noundef nonnull @.str.5, i32 noundef 2747) #16
  tail call void @abort() #17
  unreachable

77:                                               ; preds = %62, %74, %71, %68, %66, %65
  %.054 = phi nsz float [ %75, %74 ], [ %72, %71 ], [ %69, %68 ], [ 1.000000e+00, %66 ], [ %.1, %65 ], [ -1.000000e+00, %62 ]
  %.053 = phi nsz float [ -1.000000e+00, %74 ], [ %73, %71 ], [ 1.000000e+00, %68 ], [ %.0, %66 ], [ %.0, %65 ], [ %.0, %62 ]
  %.052 = phi nsz float [ %.1, %74 ], [ -1.000000e+00, %71 ], [ %70, %68 ], [ %67, %66 ], [ 1.000000e+00, %65 ], [ %.1, %62 ]
  store float %.054, ptr %5, align 4, !tbaa !49
  %78 = getelementptr inbounds nuw i8, ptr %5, i64 4
  store float %.053, ptr %78, align 4, !tbaa !49
  %79 = getelementptr inbounds nuw i8, ptr %5, i64 8
  store float %.052, ptr %79, align 4, !tbaa !49
  ret i32 1
}